target datalayout = "e-m:e-p270:32:32-p271:32:32-p272:64:64-i64:64-i128:128-f80:128-n8:16:32:64-S128"
target triple = "x86_64-pc-linux-gnu"

%struct.FunctionCallInfoBaseData = type { ptr, ptr, ptr, i32, i8, i16, [0 x %struct.NullableDatum] }
%struct.NullableDatum = type { i64, i8 }
%struct.HeapTupleData = type { i32, %struct.ItemPointerData, i32, ptr }
%struct.ItemPointerData = type { %struct.BlockIdData, i16 }
%struct.BlockIdData = type { i16, i16 }

@.str.1 = private unnamed_addr constant [12 x i8] c"commit_ts.c\00", align 1
@.str.2 = private unnamed_addr constant [31 x i8] c"return type must be a row type\00", align 1
@__func__.pg_xact_commit_timestamp_origin = private unnamed_addr constant [32 x i8] c"pg_xact_commit_timestamp_origin\00", align 1

; Function Attrs: inlinehint nounwind uwtable
define internal i64 @Int64GetDatum(i64 noundef %0) #2 {
  %2 = alloca i64, align 8
  store i64 %0, ptr %2, align 8
  %3 = load i64, ptr %2, align 8
  ret i64 %3
}

; Function Attrs: inlinehint nounwind uwtable
define internal i64 @HeapTupleGetDatum(ptr noundef %0) #2 {
  %2 = alloca ptr, align 8
  store ptr %0, ptr %2, align 8
  %3 = load ptr, ptr %2, align 8
  %4 = getelementptr inbounds nuw %struct.HeapTupleData, ptr %3, i32 0, i32 3
  %5 = load ptr, ptr %4, align 8
  %6 = call i64 @HeapTupleHeaderGetDatum(ptr noundef %5)
  ret i64 %6
}

; Function Attrs: inlinehint nounwind uwtable
define internal i64 @ObjectIdGetDatum(i32 noundef %0) #2 {
  %2 = alloca i32, align 4
  store i32 %0, ptr %2, align 4
  %3 = load i32, ptr %2, align 4
  %4 = zext i32 %3 to i64
  ret i64 %4
}

; Function Attrs: inlinehint nounwind uwtable
define internal i64 @TimestampTzGetDatum(i64 noundef %0) #2 {
  %2 = alloca i64, align 8
  store i64 %0, ptr %2, align 8
  %3 = load i64, ptr %2, align 8
  %4 = call i64 @Int64GetDatum(i64 noundef %3)
  ret i64 %4
}

; Function Attrs: inlinehint nounwind uwtable
define internal i32 @DatumGetTransactionId(i64 noundef %0) #2 {
  %2 = alloca i64, align 8
  store i64 %0, ptr %2, align 8
  %3 = load i64, ptr %2, align 8
  %4 = trunc i64 %3 to i32
  ret i32 %4
}

; Function Attrs: nounwind uwtable
define dso_local i64 @pg_xact_commit_timestamp_origin(ptr noundef %0) #0 {
  %2 = alloca ptr, align 8
  %3 = alloca i32, align 4
  %4 = alloca i16, align 2
  %5 = alloca i64, align 8
  %6 = alloca [2 x i64], align 16
  %7 = alloca [2 x i8], align 1
  %8 = alloca ptr, align 8
  %9 = alloca ptr, align 8
  %10 = alloca i8, align 1
  store ptr %0, ptr %2, align 8
  call void @llvm.lifetime.start.p0(i64 4, ptr %3) #7
  %11 = load ptr, ptr %2, align 8
  %12 = getelementptr inbounds nuw %struct.FunctionCallInfoBaseData, ptr %11, i32 0, i32 6
  %13 = getelementptr inbounds [0 x %struct.NullableDatum], ptr %12, i64 0, i64 0
  %14 = getelementptr inbounds nuw %struct.NullableDatum, ptr %13, i32 0, i32 0
  %15 = load i64, ptr %14, align 8
  %16 = call i32 @DatumGetTransactionId(i64 noundef %15)
  store i32 %16, ptr %3, align 4
  call void @llvm.lifetime.start.p0(i64 2, ptr %4) #7
  call void @llvm.lifetime.start.p0(i64 8, ptr %5) #7
  call void @llvm.lifetime.start.p0(i64 16, ptr %6) #7
  call void @llvm.lifetime.start.p0(i64 2, ptr %7) #7
  call void @llvm.lifetime.start.p0(i64 8, ptr %8) #7
  call void @llvm.lifetime.start.p0(i64 8, ptr %9) #7
  call void @llvm.lifetime.start.p0(i64 1, ptr %10) #7
  %17 = load i32, ptr %3, align 4
  %18 = call zeroext i1 @TransactionIdGetCommitTsData(i32 noundef %17, ptr noundef %5, ptr noundef %4)
  %19 = zext i1 %18 to i8
  store i8 %19, ptr %10, align 1
  %20 = load ptr, ptr %2, align 8
  %21 = call i32 @get_call_result_type(ptr noundef %20, ptr noundef null, ptr noundef %8)
  %22 = icmp ne i32 %21, 1
  br i1 %22, label %23, label %34

23:                                               ; preds = %1
  br label %24

24:                                               ; preds = %23
  br i1 true, label %25, label %27

25:                                               ; preds = %24
  %26 = call zeroext i1 @errstart_cold(i32 noundef 21, ptr noundef null) #8
  br i1 %26, label %29, label %31

27:                                               ; preds = %24
  %28 = call zeroext i1 @errstart(i32 noundef 21, ptr noundef null)
  br i1 %28, label %29, label %31

29:                                               ; preds = %27, %25
  %30 = call i32 (ptr, ...) @errmsg_internal(ptr noundef @.str.2)
  call void @errfinish(ptr noundef @.str.1, i32 noundef 478, ptr noundef @__func__.pg_xact_commit_timestamp_origin)
  br label %31

31:                                               ; preds = %29, %27, %25
  unreachable

32:                                               ; No predecessors!
  br label %33

33:                                               ; preds = %32
  br label %34

34:                                               ; preds = %33, %1
  %35 = load i8, ptr %10, align 1, !range !4, !noundef !5
  %36 = trunc i8 %35 to i1
  br i1 %36, label %39, label %37

37:                                               ; preds = %34
  %38 = getelementptr inbounds [2 x i8], ptr %7, i64 0, i64 0
  call void @llvm.memset.p0.i64(ptr align 1 %38, i8 1, i64 2, i1 false)
  br label %49

39:                                               ; preds = %34
  %40 = load i64, ptr %5, align 8
  %41 = call i64 @TimestampTzGetDatum(i64 noundef %40)
  %42 = getelementptr inbounds [2 x i64], ptr %6, i64 0, i64 0
  store i64 %41, ptr %42, align 16
  %43 = getelementptr inbounds [2 x i8], ptr %7, i64 0, i64 0
  store i8 0, ptr %43, align 1
  %44 = load i16, ptr %4, align 2
  %45 = zext i16 %44 to i32
  %46 = call i64 @ObjectIdGetDatum(i32 noundef %45)
  %47 = getelementptr inbounds [2 x i64], ptr %6, i64 0, i64 1
  store i64 %46, ptr %47, align 8
  %48 = getelementptr inbounds [2 x i8], ptr %7, i64 0, i64 1
  store i8 0, ptr %48, align 1
  br label %49

49:                                               ; preds = %39, %37
  %50 = load ptr, ptr %8, align 8
  %51 = getelementptr inbounds [2 x i64], ptr %6, i64 0, i64 0
  %52 = getelementptr inbounds [2 x i8], ptr %7, i64 0, i64 0
  %53 = call ptr @heap_form_tuple(ptr noundef %50, ptr noundef %51, ptr noundef %52)
  store ptr %53, ptr %9, align 8
  %54 = load ptr, ptr %9, align 8
  %55 = call i64 @HeapTupleGetDatum(ptr noundef %54)
  call void @llvm.lifetime.end.p0(i64 1, ptr %10) #7
  call void @llvm.lifetime.end.p0(i64 8, ptr %9) #7
  call void @llvm.lifetime.end.p0(i64 8, ptr %8) #7
  call void @llvm.lifetime.end.p0(i64 2, ptr %7) #7
  call void @llvm.lifetime.end.p0(i64 16, ptr %6) #7
  call void @llvm.lifetime.end.p0(i64 8, ptr %5) #7
  call void @llvm.lifetime.end.p0(i64 2, ptr %4) #7
  call void @llvm.lifetime.end.p0(i64 4, ptr %3) #7
  ret i64 %55
}