; Function Attrs: nounwind uwtable
define dso_local i64 @pg_xact_commit_timestamp_origin(ptr noundef %0) local_unnamed_addr #0 {
  %2 = alloca i16, align 2
  %3 = alloca i64, align 8
  %4 = alloca [2 x i64], align 16
  %5 = alloca [2 x i8], align 2
  %6 = alloca ptr, align 8
  %7 = getelementptr inbounds nuw i8, ptr %0, i64 32
  %8 = load i64, ptr %7, align 8
  %9 = trunc i64 %8 to i32
  call void @llvm.lifetime.start.p0(i64 2, ptr nonnull %2) #9
  call void @llvm.lifetime.start.p0(i64 8, ptr nonnull %3) #9
  call void @llvm.lifetime.start.p0(i64 16, ptr nonnull %4) #9
  call void @llvm.lifetime.start.p0(i64 2, ptr nonnull %5) #9
  call void @llvm.lifetime.start.p0(i64 8, ptr nonnull %6) #9
  %10 = call zeroext i1 @TransactionIdGetCommitTsData(i32 noundef %9, ptr noundef nonnull %3, ptr noundef nonnull %2)
  %11 = call i32 @get_call_result_type(ptr noundef %0, ptr noundef null, ptr noundef nonnull %6) #9
  %.not = icmp eq i32 %11, 1
  br i1 %.not, label %15, label %12

12:                                               ; preds = %1
  %13 = call zeroext i1 @errstart_cold(i32 noundef 21, ptr noundef null) #10
  call void @llvm.assume(i1 %13)
  %14 = call i32 (ptr, ...) @errmsg_internal(ptr noundef nonnull @.str.2) #9
  call void @errfinish(ptr noundef nonnull @.str.1, i32 noundef 478, ptr noundef nonnull @__func__.pg_xact_commit_timestamp_origin) #9
  unreachable

15:                                               ; preds = %1
  br i1 %10, label %17, label %16

16:                                               ; preds = %15
  store i16 257, ptr %5, align 2
  br label %23

17:                                               ; preds = %15
  %18 = load i64, ptr %3, align 8
  store i64 %18, ptr %4, align 16
  store i8 0, ptr %5, align 2
  %19 = load i16, ptr %2, align 2
  %20 = zext i16 %19 to i64
  %21 = getelementptr inbounds nuw i8, ptr %4, i64 8
  store i64 %20, ptr %21, align 8
  %22 = getelementptr inbounds nuw i8, ptr %5, i64 1
  store i8 0, ptr %22, align 1
  br label %23

23:                                               ; preds = %17, %16
  %24 = load ptr, ptr %6, align 8
  %25 = call ptr @heap_form_tuple(ptr noundef %24, ptr noundef nonnull %4, ptr noundef nonnull %5) #9
  %26 = getelementptr i8, ptr %25, i64 16
  %.val = load ptr, ptr %26, align 8
  %27 = call i64 @HeapTupleHeaderGetDatum(ptr noundef %.val) #9
  call void @llvm.lifetime.end.p0(i64 8, ptr nonnull %6) #9
  call void @llvm.lifetime.end.p0(i64 2, ptr nonnull %5) #9
  call void @llvm.lifetime.end.p0(i64 16, ptr nonnull %4) #9
  call void @llvm.lifetime.end.p0(i64 8, ptr nonnull %3) #9
  call void @llvm.lifetime.end.p0(i64 2, ptr nonnull %2) #9
  ret i64 %27
}